target datalayout = "e-m:e-p270:32:32-p271:32:32-p272:64:64-i64:64-i128:128-f80:128-n8:16:32:64-S128"
target triple = "x86_64-pc-linux-gnu"

%struct.rb_random_mt_t = type { %struct.rb_random_struct, %struct.MT }
%struct.rb_random_struct = type { i64 }
%struct.MT = type { [624 x i32], ptr, i32 }

; Function Attrs: nounwind sspstrong uwtable
define internal void @init_genrand(ptr noundef %0, i32 noundef %1) #0 {
  %3 = alloca ptr, align 8
  %4 = alloca i32, align 4
  %5 = alloca i32, align 4
  store ptr %0, ptr %3, align 8, !tbaa !12
  store i32 %1, ptr %4, align 4, !tbaa !19
  call void @llvm.lifetime.start.p0(i64 4, ptr %5) #24
  %6 = load i32, ptr %4, align 4, !tbaa !19
  %7 = and i32 %6, -1
  %8 = load ptr, ptr %3, align 8, !tbaa !12
  %9 = getelementptr inbounds nuw %struct.MT, ptr %8, i32 0, i32 0
  %10 = getelementptr [624 x i32], ptr %9, i64 0, i64 0
  store i32 %7, ptr %10, align 8, !tbaa !19
  store i32 1, ptr %5, align 4, !tbaa !19
  br label %11

11:                                               ; preds = %46, %2
  %12 = load i32, ptr %5, align 4, !tbaa !19
  %13 = icmp slt i32 %12, 624
  br i1 %13, label %14, label %49

14:                                               ; preds = %11
  %15 = load ptr, ptr %3, align 8, !tbaa !12
  %16 = getelementptr inbounds nuw %struct.MT, ptr %15, i32 0, i32 0
  %17 = load i32, ptr %5, align 4, !tbaa !19
  %18 = sub i32 %17, 1
  %19 = sext i32 %18 to i64
  %20 = getelementptr [624 x i32], ptr %16, i64 0, i64 %19
  %21 = load i32, ptr %20, align 4, !tbaa !19
  %22 = load ptr, ptr %3, align 8, !tbaa !12
  %23 = getelementptr inbounds nuw %struct.MT, ptr %22, i32 0, i32 0
  %24 = load i32, ptr %5, align 4, !tbaa !19
  %25 = sub i32 %24, 1
  %26 = sext i32 %25 to i64
  %27 = getelementptr [624 x i32], ptr %23, i64 0, i64 %26
  %28 = load i32, ptr %27, align 4, !tbaa !19
  %29 = lshr i32 %28, 30
  %30 = xor i32 %21, %29
  %31 = mul i32 1812433253, %30
  %32 = load i32, ptr %5, align 4, !tbaa !19
  %33 = add i32 %31, %32
  %34 = load ptr, ptr %3, align 8, !tbaa !12
  %35 = getelementptr inbounds nuw %struct.MT, ptr %34, i32 0, i32 0
  %36 = load i32, ptr %5, align 4, !tbaa !19
  %37 = sext i32 %36 to i64
  %38 = getelementptr [624 x i32], ptr %35, i64 0, i64 %37
  store i32 %33, ptr %38, align 4, !tbaa !19
  %39 = load ptr, ptr %3, align 8, !tbaa !12
  %40 = getelementptr inbounds nuw %struct.MT, ptr %39, i32 0, i32 0
  %41 = load i32, ptr %5, align 4, !tbaa !19
  %42 = sext i32 %41 to i64
  %43 = getelementptr [624 x i32], ptr %40, i64 0, i64 %42
  %44 = load i32, ptr %43, align 4, !tbaa !19
  %45 = and i32 %44, -1
  store i32 %45, ptr %43, align 4, !tbaa !19
  br label %46

46:                                               ; preds = %14
  %47 = load i32, ptr %5, align 4, !tbaa !19
  %48 = add i32 %47, 1
  store i32 %48, ptr %5, align 4, !tbaa !19
  br label %11, !llvm.loop !85

49:                                               ; preds = %11
  %50 = load ptr, ptr %3, align 8, !tbaa !12
  %51 = getelementptr inbounds nuw %struct.MT, ptr %50, i32 0, i32 2
  store i32 1, ptr %51, align 8, !tbaa !14
  %52 = load ptr, ptr %3, align 8, !tbaa !12
  %53 = getelementptr inbounds nuw %struct.MT, ptr %52, i32 0, i32 0
  %54 = getelementptr inbounds [624 x i32], ptr %53, i64 0, i64 0
  %55 = getelementptr i32, ptr %54, i64 624
  %56 = load ptr, ptr %3, align 8, !tbaa !12
  %57 = getelementptr inbounds nuw %struct.MT, ptr %56, i32 0, i32 1
  store ptr %55, ptr %57, align 8, !tbaa !18
  call void @llvm.lifetime.end.p0(i64 4, ptr %5) #24
  ret void
}

; Function Attrs: nounwind sspstrong uwtable
define internal void @init_by_array(ptr noundef %0, ptr noundef %1, i32 noundef %2) #0 {
  %4 = alloca ptr, align 8
  %5 = alloca ptr, align 8
  %6 = alloca i32, align 4
  %7 = alloca i32, align 4
  %8 = alloca i32, align 4
  %9 = alloca i32, align 4
  store ptr %0, ptr %4, align 8, !tbaa !12
  store ptr %1, ptr %5, align 8, !tbaa !59
  store i32 %2, ptr %6, align 4, !tbaa !19
  call void @llvm.lifetime.start.p0(i64 4, ptr %7) #24
  call void @llvm.lifetime.start.p0(i64 4, ptr %8) #24
  call void @llvm.lifetime.start.p0(i64 4, ptr %9) #24
  %10 = load ptr, ptr %4, align 8, !tbaa !12
  call void @init_genrand(ptr noundef %10, i32 noundef 19650218)
  store i32 1, ptr %7, align 4, !tbaa !19
  store i32 0, ptr %8, align 4, !tbaa !19
  %11 = load i32, ptr %6, align 4, !tbaa !19
  %12 = icmp sgt i32 624, %11
  br i1 %12, label %13, label %14

13:                                               ; preds = %3
  br label %16

14:                                               ; preds = %3
  %15 = load i32, ptr %6, align 4, !tbaa !19
  br label %16

16:                                               ; preds = %14, %13
  %17 = phi i32 [ 624, %13 ], [ %15, %14 ]
  store i32 %17, ptr %9, align 4, !tbaa !19
  br label %18

18:                                               ; preds = %86, %16
  %19 = load i32, ptr %9, align 4, !tbaa !19
  %20 = icmp ne i32 %19, 0
  br i1 %20, label %21, label %89

21:                                               ; preds = %18
  %22 = load ptr, ptr %4, align 8, !tbaa !12
  %23 = getelementptr inbounds nuw %struct.MT, ptr %22, i32 0, i32 0
  %24 = load i32, ptr %7, align 4, !tbaa !19
  %25 = sext i32 %24 to i64
  %26 = getelementptr [624 x i32], ptr %23, i64 0, i64 %25
  %27 = load i32, ptr %26, align 4, !tbaa !19
  %28 = load ptr, ptr %4, align 8, !tbaa !12
  %29 = getelementptr inbounds nuw %struct.MT, ptr %28, i32 0, i32 0
  %30 = load i32, ptr %7, align 4, !tbaa !19
  %31 = sub i32 %30, 1
  %32 = sext i32 %31 to i64
  %33 = getelementptr [624 x i32], ptr %29, i64 0, i64 %32
  %34 = load i32, ptr %33, align 4, !tbaa !19
  %35 = load ptr, ptr %4, align 8, !tbaa !12
  %36 = getelementptr inbounds nuw %struct.MT, ptr %35, i32 0, i32 0
  %37 = load i32, ptr %7, align 4, !tbaa !19
  %38 = sub i32 %37, 1
  %39 = sext i32 %38 to i64
  %40 = getelementptr [624 x i32], ptr %36, i64 0, i64 %39
  %41 = load i32, ptr %40, align 4, !tbaa !19
  %42 = lshr i32 %41, 30
  %43 = xor i32 %34, %42
  %44 = mul i32 %43, 1664525
  %45 = xor i32 %27, %44
  %46 = load ptr, ptr %5, align 8, !tbaa !59
  %47 = load i32, ptr %8, align 4, !tbaa !19
  %48 = sext i32 %47 to i64
  %49 = getelementptr i32, ptr %46, i64 %48
  %50 = load i32, ptr %49, align 4, !tbaa !19
  %51 = add i32 %45, %50
  %52 = load i32, ptr %8, align 4, !tbaa !19
  %53 = add i32 %51, %52
  %54 = load ptr, ptr %4, align 8, !tbaa !12
  %55 = getelementptr inbounds nuw %struct.MT, ptr %54, i32 0, i32 0
  %56 = load i32, ptr %7, align 4, !tbaa !19
  %57 = sext i32 %56 to i64
  %58 = getelementptr [624 x i32], ptr %55, i64 0, i64 %57
  store i32 %53, ptr %58, align 4, !tbaa !19
  %59 = load ptr, ptr %4, align 8, !tbaa !12
  %60 = getelementptr inbounds nuw %struct.MT, ptr %59, i32 0, i32 0
  %61 = load i32, ptr %7, align 4, !tbaa !19
  %62 = sext i32 %61 to i64
  %63 = getelementptr [624 x i32], ptr %60, i64 0, i64 %62
  %64 = load i32, ptr %63, align 4, !tbaa !19
  %65 = and i32 %64, -1
  store i32 %65, ptr %63, align 4, !tbaa !19
  %66 = load i32, ptr %7, align 4, !tbaa !19
  %67 = add i32 %66, 1
  store i32 %67, ptr %7, align 4, !tbaa !19
  %68 = load i32, ptr %8, align 4, !tbaa !19
  %69 = add i32 %68, 1
  store i32 %69, ptr %8, align 4, !tbaa !19
  %70 = load i32, ptr %7, align 4, !tbaa !19
  %71 = icmp sge i32 %70, 624
  br i1 %71, label %72, label %80

72:                                               ; preds = %21
  %73 = load ptr, ptr %4, align 8, !tbaa !12
  %74 = getelementptr inbounds nuw %struct.MT, ptr %73, i32 0, i32 0
  %75 = getelementptr [624 x i32], ptr %74, i64 0, i64 623
  %76 = load i32, ptr %75, align 4, !tbaa !19
  %77 = load ptr, ptr %4, align 8, !tbaa !12
  %78 = getelementptr inbounds nuw %struct.MT, ptr %77, i32 0, i32 0
  %79 = getelementptr [624 x i32], ptr %78, i64 0, i64 0
  store i32 %76, ptr %79, align 8, !tbaa !19
  store i32 1, ptr %7, align 4, !tbaa !19
  br label %80

80:                                               ; preds = %72, %21
  %81 = load i32, ptr %8, align 4, !tbaa !19
  %82 = load i32, ptr %6, align 4, !tbaa !19
  %83 = icmp sge i32 %81, %82
  br i1 %83, label %84, label %85

84:                                               ; preds = %80
  store i32 0, ptr %8, align 4, !tbaa !19
  br label %85

85:                                               ; preds = %84, %80
  br label %86

86:                                               ; preds = %85
  %87 = load i32, ptr %9, align 4, !tbaa !19
  %88 = add i32 %87, -1
  store i32 %88, ptr %9, align 4, !tbaa !19
  br label %18, !llvm.loop !67

89:                                               ; preds = %18
  store i32 623, ptr %9, align 4, !tbaa !19
  br label %90

90:                                               ; preds = %145, %89
  %91 = load i32, ptr %9, align 4, !tbaa !19
  %92 = icmp ne i32 %91, 0
  br i1 %92, label %93, label %148

93:                                               ; preds = %90
  %94 = load ptr, ptr %4, align 8, !tbaa !12
  %95 = getelementptr inbounds nuw %struct.MT, ptr %94, i32 0, i32 0
  %96 = load i32, ptr %7, align 4, !tbaa !19
  %97 = sext i32 %96 to i64
  %98 = getelementptr [624 x i32], ptr %95, i64 0, i64 %97
  %99 = load i32, ptr %98, align 4, !tbaa !19
  %100 = load ptr, ptr %4, align 8, !tbaa !12
  %101 = getelementptr inbounds nuw %struct.MT, ptr %100, i32 0, i32 0
  %102 = load i32, ptr %7, align 4, !tbaa !19
  %103 = sub i32 %102, 1
  %104 = sext i32 %103 to i64
  %105 = getelementptr [624 x i32], ptr %101, i64 0, i64 %104
  %106 = load i32, ptr %105, align 4, !tbaa !19
  %107 = load ptr, ptr %4, align 8, !tbaa !12
  %108 = getelementptr inbounds nuw %struct.MT, ptr %107, i32 0, i32 0
  %109 = load i32, ptr %7, align 4, !tbaa !19
  %110 = sub i32 %109, 1
  %111 = sext i32 %110 to i64
  %112 = getelementptr [624 x i32], ptr %108, i64 0, i64 %111
  %113 = load i32, ptr %112, align 4, !tbaa !19
  %114 = lshr i32 %113, 30
  %115 = xor i32 %106, %114
  %116 = mul i32 %115, 1566083941
  %117 = xor i32 %99, %116
  %118 = load i32, ptr %7, align 4, !tbaa !19
  %119 = sub i32 %117, %118
  %120 = load ptr, ptr %4, align 8, !tbaa !12
  %121 = getelementptr inbounds nuw %struct.MT, ptr %120, i32 0, i32 0
  %122 = load i32, ptr %7, align 4, !tbaa !19
  %123 = sext i32 %122 to i64
  %124 = getelementptr [624 x i32], ptr %121, i64 0, i64 %123
  store i32 %119, ptr %124, align 4, !tbaa !19
  %125 = load ptr, ptr %4, align 8, !tbaa !12
  %126 = getelementptr inbounds nuw %struct.MT, ptr %125, i32 0, i32 0
  %127 = load i32, ptr %7, align 4, !tbaa !19
  %128 = sext i32 %127 to i64
  %129 = getelementptr [624 x i32], ptr %126, i64 0, i64 %128
  %130 = load i32, ptr %129, align 4, !tbaa !19
  %131 = and i32 %130, -1
  store i32 %131, ptr %129, align 4, !tbaa !19
  %132 = load i32, ptr %7, align 4, !tbaa !19
  %133 = add i32 %132, 1
  store i32 %133, ptr %7, align 4, !tbaa !19
  %134 = load i32, ptr %7, align 4, !tbaa !19
  %135 = icmp sge i32 %134, 624
  br i1 %135, label %136, label %144

136:                                              ; preds = %93
  %137 = load ptr, ptr %4, align 8, !tbaa !12
  %138 = getelementptr inbounds nuw %struct.MT, ptr %137, i32 0, i32 0
  %139 = getelementptr [624 x i32], ptr %138, i64 0, i64 623
  %140 = load i32, ptr %139, align 4, !tbaa !19
  %141 = load ptr, ptr %4, align 8, !tbaa !12
  %142 = getelementptr inbounds nuw %struct.MT, ptr %141, i32 0, i32 0
  %143 = getelementptr [624 x i32], ptr %142, i64 0, i64 0
  store i32 %140, ptr %143, align 8, !tbaa !19
  store i32 1, ptr %7, align 4, !tbaa !19
  br label %144

144:                                              ; preds = %136, %93
  br label %145

145:                                              ; preds = %144
  %146 = load i32, ptr %9, align 4, !tbaa !19
  %147 = add i32 %146, -1
  store i32 %147, ptr %9, align 4, !tbaa !19
  br label %90, !llvm.loop !68

148:                                              ; preds = %90
  %149 = load ptr, ptr %4, align 8, !tbaa !12
  %150 = getelementptr inbounds nuw %struct.MT, ptr %149, i32 0, i32 0
  %151 = getelementptr [624 x i32], ptr %150, i64 0, i64 0
  store i32 -2147483648, ptr %151, align 8, !tbaa !19
  call void @llvm.lifetime.end.p0(i64 4, ptr %9) #24
  call void @llvm.lifetime.end.p0(i64 4, ptr %8) #24
  call void @llvm.lifetime.end.p0(i64 4, ptr %7) #24
  ret void
}

; Function Attrs: nounwind sspstrong uwtable
define internal void @rand_mt_init(ptr noundef %0, ptr noundef %1, i64 noundef %2) #0 {
  %4 = alloca ptr, align 8
  %5 = alloca ptr, align 8
  %6 = alloca i64, align 8
  %7 = alloca ptr, align 8
  store ptr %0, ptr %4, align 8, !tbaa !24
  store ptr %1, ptr %5, align 8, !tbaa !59
  store i64 %2, ptr %6, align 8, !tbaa !26
  call void @llvm.lifetime.start.p0(i64 8, ptr %7) #24
  %8 = load ptr, ptr %4, align 8, !tbaa !24
  %9 = getelementptr inbounds nuw %struct.rb_random_mt_t, ptr %8, i32 0, i32 1
  store ptr %9, ptr %7, align 8, !tbaa !12
  %10 = load ptr, ptr %7, align 8, !tbaa !12
  %11 = load ptr, ptr %5, align 8, !tbaa !59
  %12 = load i64, ptr %6, align 8, !tbaa !26
  %13 = trunc i64 %12 to i32
  call void @init_by_array(ptr noundef %10, ptr noundef %11, i32 noundef %13)
  call void @llvm.lifetime.end.p0(i64 8, ptr %7) #24
  ret void
}