; Function Attrs: nofree norecurse nosync nounwind sspstrong memory(argmem: readwrite) uwtable
define internal void @rand_mt_init(ptr noundef initializes((8, 12)) %0, ptr noundef readonly captures(none) %1, i64 noundef %2) #12 {
  %4 = getelementptr inbounds nuw i8, ptr %0, i64 8
  store i32 19650218, ptr %4, align 8, !tbaa !22
  br label %5

5:                                                ; preds = %5, %3
  %6 = phi i32 [ 19650218, %3 ], [ %11, %5 ]
  %indvars.iv.i.i = phi i64 [ 1, %3 ], [ %indvars.iv.next.i.i, %5 ]
  %7 = lshr i32 %6, 30
  %8 = xor i32 %7, %6
  %9 = mul i32 %8, 1812433253
  %10 = trunc nuw nsw i64 %indvars.iv.i.i to i32
  %11 = add i32 %9, %10
  %12 = getelementptr [624 x i32], ptr %4, i64 0, i64 %indvars.iv.i.i
  store i32 %11, ptr %12, align 4, !tbaa !22
  %indvars.iv.next.i.i = add nuw nsw i64 %indvars.iv.i.i, 1
  %exitcond.not.i.i = icmp eq i64 %indvars.iv.next.i.i, 624
  br i1 %exitcond.not.i.i, label %init_genrand.exit.i, label %5, !llvm.loop !67

init_genrand.exit.i:                              ; preds = %5
  %13 = trunc i64 %2 to i32
  %14 = getelementptr inbounds nuw i8, ptr %0, i64 2512
  store i32 1, ptr %14, align 8, !tbaa !20
  %15 = getelementptr i8, ptr %0, i64 2504
  store ptr %15, ptr %15, align 8, !tbaa !21
  %16 = tail call i32 @llvm.smax.i32(i32 %13, i32 624)
  %17 = getelementptr i8, ptr %0, i64 2500
  br label %18

18:                                               ; preds = %40, %init_genrand.exit.i
  %.051.i = phi i32 [ %16, %init_genrand.exit.i ], [ %41, %40 ]
  %.04250.i = phi i32 [ 0, %init_genrand.exit.i ], [ %spec.store.select.i, %40 ]
  %.04349.i = phi i32 [ 1, %init_genrand.exit.i ], [ %.144.i, %40 ]
  %19 = sext i32 %.04349.i to i64
  %20 = getelementptr [624 x i32], ptr %4, i64 0, i64 %19
  %21 = load i32, ptr %20, align 4, !tbaa !22
  %22 = add i32 %.04349.i, -1
  %23 = sext i32 %22 to i64
  %24 = getelementptr [624 x i32], ptr %4, i64 0, i64 %23
  %25 = load i32, ptr %24, align 4, !tbaa !22
  %26 = lshr i32 %25, 30
  %27 = xor i32 %26, %25
  %28 = mul i32 %27, 1664525
  %29 = xor i32 %28, %21
  %30 = sext i32 %.04250.i to i64
  %31 = getelementptr i32, ptr %1, i64 %30
  %32 = load i32, ptr %31, align 4, !tbaa !22
  %33 = add i32 %32, %.04250.i
  %34 = add i32 %33, %29
  store i32 %34, ptr %20, align 4, !tbaa !22
  %35 = add i32 %.04349.i, 1
  %36 = add i32 %.04250.i, 1
  %37 = icmp sgt i32 %35, 623
  br i1 %37, label %38, label %40

38:                                               ; preds = %18
  %39 = load i32, ptr %17, align 4, !tbaa !22
  store i32 %39, ptr %4, align 8, !tbaa !22
  br label %40

40:                                               ; preds = %38, %18
  %.144.i = phi i32 [ 1, %38 ], [ %35, %18 ]
  %.not48.i = icmp slt i32 %36, %13
  %spec.store.select.i = select i1 %.not48.i, i32 %36, i32 0
  %41 = add nsw i32 %.051.i, -1
  %.not.i = icmp eq i32 %41, 0
  br i1 %.not.i, label %.preheader.i, label %18, !llvm.loop !68

.preheader.i:                                     ; preds = %40, %58
  %.153.i = phi i32 [ %59, %58 ], [ 623, %40 ]
  %.252.i = phi i32 [ %.3.i, %58 ], [ %.144.i, %40 ]
  %42 = sext i32 %.252.i to i64
  %43 = getelementptr [624 x i32], ptr %4, i64 0, i64 %42
  %44 = load i32, ptr %43, align 4, !tbaa !22
  %45 = add i32 %.252.i, -1
  %46 = sext i32 %45 to i64
  %47 = getelementptr [624 x i32], ptr %4, i64 0, i64 %46
  %48 = load i32, ptr %47, align 4, !tbaa !22
  %49 = lshr i32 %48, 30
  %50 = xor i32 %49, %48
  %51 = mul i32 %50, 1566083941
  %52 = xor i32 %51, %44
  %53 = sub i32 %52, %.252.i
  store i32 %53, ptr %43, align 4, !tbaa !22
  %54 = add i32 %.252.i, 1
  %55 = icmp sgt i32 %54, 623
  br i1 %55, label %56, label %58

56:                                               ; preds = %.preheader.i
  %57 = load i32, ptr %17, align 4, !tbaa !22
  store i32 %57, ptr %4, align 8, !tbaa !22
  br label %58

58:                                               ; preds = %56, %.preheader.i
  %.3.i = phi i32 [ 1, %56 ], [ %54, %.preheader.i ]
  %59 = add nsw i32 %.153.i, -1
  %.not47.i = icmp eq i32 %59, 0
  br i1 %.not47.i, label %init_by_array.exit, label %.preheader.i, !llvm.loop !69

init_by_array.exit:                               ; preds = %58
  store i32 -2147483648, ptr %4, align 8, !tbaa !22
  ret void
}